target datalayout = "e-m:e-p270:32:32-p271:32:32-p272:64:64-i64:64-i128:128-f80:128-n8:16:32:64-S128"
target triple = "x86_64-pc-linux-gnu"

%struct.mz_stream_s = type { ptr, i32, i64, ptr, i32, i64, ptr, ptr, ptr, ptr, ptr, i32, i64, i64 }

; Function Attrs: mustprogress uwtable
define i32 @mz_deflateEnd(ptr noundef %0) #5 {
  %2 = alloca i32, align 4
  %3 = alloca ptr, align 8
  store ptr %0, ptr %3, align 8
  %4 = load ptr, ptr %3, align 8
  %5 = icmp ne ptr %4, null
  br i1 %5, label %7, label %6

6:                                                ; preds = %1
  store i32 -2, ptr %2, align 4
  br label %25

7:                                                ; preds = %1
  %8 = load ptr, ptr %3, align 8
  %9 = getelementptr inbounds %struct.mz_stream_s, ptr %8, i32 0, i32 7
  %10 = load ptr, ptr %9, align 8
  %11 = icmp ne ptr %10, null
  br i1 %11, label %12, label %24

12:                                               ; preds = %7
  %13 = load ptr, ptr %3, align 8
  %14 = getelementptr inbounds %struct.mz_stream_s, ptr %13, i32 0, i32 9
  %15 = load ptr, ptr %14, align 8
  %16 = load ptr, ptr %3, align 8
  %17 = getelementptr inbounds %struct.mz_stream_s, ptr %16, i32 0, i32 10
  %18 = load ptr, ptr %17, align 8
  %19 = load ptr, ptr %3, align 8
  %20 = getelementptr inbounds %struct.mz_stream_s, ptr %19, i32 0, i32 7
  %21 = load ptr, ptr %20, align 8
  call void %15(ptr noundef %18, ptr noundef %21)
  %22 = load ptr, ptr %3, align 8
  %23 = getelementptr inbounds %struct.mz_stream_s, ptr %22, i32 0, i32 7
  store ptr null, ptr %23, align 8
  br label %24

24:                                               ; preds = %12, %7
  store i32 0, ptr %2, align 4
  br label %25

25:                                               ; preds = %24, %6
  %26 = load i32, ptr %2, align 4
  ret i32 %26
}

; Function Attrs: mustprogress uwtable
define i32 @mz_deflateInit(ptr noundef %0, i32 noundef %1) #5 {
  %3 = alloca ptr, align 8
  %4 = alloca i32, align 4
  store ptr %0, ptr %3, align 8
  store i32 %1, ptr %4, align 4
  %5 = load ptr, ptr %3, align 8
  %6 = load i32, ptr %4, align 4
  %7 = call i32 @mz_deflateInit2(ptr noundef %5, i32 noundef %6, i32 noundef 8, i32 noundef 15, i32 noundef 9, i32 noundef 0)
  ret i32 %7
}

; Function Attrs: mustprogress uwtable
define i32 @mz_compress2(ptr noundef %0, ptr noundef %1, ptr noundef %2, i64 noundef %3, i32 noundef %4) #5 {
  %6 = alloca i32, align 4
  %7 = alloca ptr, align 8
  %8 = alloca ptr, align 8
  %9 = alloca ptr, align 8
  %10 = alloca i64, align 8
  %11 = alloca i32, align 4
  %12 = alloca i32, align 4
  %13 = alloca %struct.mz_stream_s, align 8
  store ptr %0, ptr %7, align 8
  store ptr %1, ptr %8, align 8
  store ptr %2, ptr %9, align 8
  store i64 %3, ptr %10, align 8
  store i32 %4, ptr %11, align 4
  call void @llvm.memset.p0.i64(ptr align 8 %13, i8 0, i64 112, i1 false)
  %14 = load i64, ptr %10, align 8
  %15 = load ptr, ptr %8, align 8
  %16 = load i64, ptr %15, align 8
  %17 = or i64 %14, %16
  %18 = icmp ugt i64 %17, 4294967295
  br i1 %18, label %19, label %20

19:                                               ; preds = %5
  store i32 -10000, ptr %6, align 4
  br label %56

20:                                               ; preds = %5
  %21 = load ptr, ptr %9, align 8
  %22 = getelementptr inbounds %struct.mz_stream_s, ptr %13, i32 0, i32 0
  store ptr %21, ptr %22, align 8
  %23 = load i64, ptr %10, align 8
  %24 = trunc i64 %23 to i32
  %25 = getelementptr inbounds %struct.mz_stream_s, ptr %13, i32 0, i32 1
  store i32 %24, ptr %25, align 8
  %26 = load ptr, ptr %7, align 8
  %27 = getelementptr inbounds %struct.mz_stream_s, ptr %13, i32 0, i32 3
  store ptr %26, ptr %27, align 8
  %28 = load ptr, ptr %8, align 8
  %29 = load i64, ptr %28, align 8
  %30 = trunc i64 %29 to i32
  %31 = getelementptr inbounds %struct.mz_stream_s, ptr %13, i32 0, i32 4
  store i32 %30, ptr %31, align 8
  %32 = load i32, ptr %11, align 4
  %33 = call i32 @mz_deflateInit(ptr noundef %13, i32 noundef %32)
  store i32 %33, ptr %12, align 4
  %34 = load i32, ptr %12, align 4
  %35 = icmp ne i32 %34, 0
  br i1 %35, label %36, label %38

36:                                               ; preds = %20
  %37 = load i32, ptr %12, align 4
  store i32 %37, ptr %6, align 4
  br label %56

38:                                               ; preds = %20
  %39 = call i32 @mz_deflate(ptr noundef %13, i32 noundef 4)
  store i32 %39, ptr %12, align 4
  %40 = load i32, ptr %12, align 4
  %41 = icmp ne i32 %40, 1
  br i1 %41, label %42, label %51

42:                                               ; preds = %38
  %43 = call i32 @mz_deflateEnd(ptr noundef %13)
  %44 = load i32, ptr %12, align 4
  %45 = icmp eq i32 %44, 0
  br i1 %45, label %46, label %47

46:                                               ; preds = %42
  br label %49

47:                                               ; preds = %42
  %48 = load i32, ptr %12, align 4
  br label %49

49:                                               ; preds = %47, %46
  %50 = phi i32 [ -5, %46 ], [ %48, %47 ]
  store i32 %50, ptr %6, align 4
  br label %56

51:                                               ; preds = %38
  %52 = getelementptr inbounds %struct.mz_stream_s, ptr %13, i32 0, i32 5
  %53 = load i64, ptr %52, align 8
  %54 = load ptr, ptr %8, align 8
  store i64 %53, ptr %54, align 8
  %55 = call i32 @mz_deflateEnd(ptr noundef %13)
  store i32 %55, ptr %6, align 4
  br label %56

56:                                               ; preds = %51, %49, %36, %19
  %57 = load i32, ptr %6, align 4
  ret i32 %57
}