; Function Attrs: mustprogress uwtable
define i32 @mz_compress2(ptr noundef %0, ptr nocapture noundef %1, ptr noundef %2, i64 noundef %3, i32 noundef %4) local_unnamed_addr #9 {
  %6 = alloca %struct.mz_stream_s, align 8
  %7 = getelementptr inbounds i8, ptr %6, i64 8
  call void @llvm.memset.p0.i64(ptr noundef nonnull align 8 dereferenceable(112) %7, i8 0, i64 104, i1 false)
  %8 = load i64, ptr %1, align 8
  %9 = or i64 %8, %3
  %10 = icmp ugt i64 %9, 4294967295
  br i1 %10, label %mz_deflateEnd.exit17, label %11

11:                                               ; preds = %5
  store ptr %2, ptr %6, align 8
  %12 = trunc i64 %3 to i32
  %13 = getelementptr inbounds i8, ptr %6, i64 8
  store i32 %12, ptr %13, align 8
  %14 = getelementptr inbounds i8, ptr %6, i64 24
  store ptr %0, ptr %14, align 8
  %15 = trunc i64 %8 to i32
  %16 = getelementptr inbounds i8, ptr %6, i64 32
  store i32 %15, ptr %16, align 8
  %17 = call noundef i32 @mz_deflateInit2(ptr noundef nonnull %6, i32 noundef %4, i32 noundef 8, i32 noundef 15, i32 noundef 9, i32 noundef 0), !range !14
  %.not = icmp eq i32 %17, 0
  br i1 %.not, label %18, label %mz_deflateEnd.exit17

18:                                               ; preds = %11
  %19 = call i32 @mz_deflate(ptr noundef nonnull %6, i32 noundef 4), !range !18
  %.not15 = icmp eq i32 %19, 1
  br i1 %.not15, label %30, label %20

20:                                               ; preds = %18
  %21 = getelementptr inbounds i8, ptr %6, i64 56
  %22 = load ptr, ptr %21, align 8
  %.not8.i = icmp eq ptr %22, null
  br i1 %.not8.i, label %mz_deflateEnd.exit, label %23

23:                                               ; preds = %20
  %24 = getelementptr inbounds i8, ptr %6, i64 72
  %25 = load ptr, ptr %24, align 8
  %26 = getelementptr inbounds i8, ptr %6, i64 80
  %27 = load ptr, ptr %26, align 8
  call void %25(ptr noundef %27, ptr noundef nonnull %22)
  br label %mz_deflateEnd.exit

mz_deflateEnd.exit:                               ; preds = %20, %23
  %28 = icmp eq i32 %19, 0
  %29 = select i1 %28, i32 -5, i32 %19
  br label %mz_deflateEnd.exit17

30:                                               ; preds = %18
  %31 = getelementptr inbounds i8, ptr %6, i64 40
  %32 = load i64, ptr %31, align 8
  store i64 %32, ptr %1, align 8
  %33 = getelementptr inbounds i8, ptr %6, i64 56
  %34 = load ptr, ptr %33, align 8
  %.not8.i16 = icmp eq ptr %34, null
  br i1 %.not8.i16, label %mz_deflateEnd.exit17, label %35

35:                                               ; preds = %30
  %36 = getelementptr inbounds i8, ptr %6, i64 72
  %37 = load ptr, ptr %36, align 8
  %38 = getelementptr inbounds i8, ptr %6, i64 80
  %39 = load ptr, ptr %38, align 8
  call void %37(ptr noundef %39, ptr noundef nonnull %34)
  br label %mz_deflateEnd.exit17

mz_deflateEnd.exit17:                             ; preds = %35, %30, %11, %5, %mz_deflateEnd.exit
  %.0 = phi i32 [ %29, %mz_deflateEnd.exit ], [ -10000, %5 ], [ %17, %11 ], [ 0, %30 ], [ 0, %35 ]
  ret i32 %.0
}